target datalayout = "e-m:e-p270:32:32-p271:32:32-p272:64:64-i64:64-f80:128-n8:16:32:64-S128"
target triple = "x86_64-pc-linux-gnu"

@.str = private unnamed_addr constant [3 x i8] c"%d\00", align 1
@.str.1 = private unnamed_addr constant [3 x i8] c"%s\00", align 1
@.str.2 = private unnamed_addr constant [3 x i8] c"%c\00", align 1
@.str.3 = private unnamed_addr constant [2 x i8] c"\0A\00", align 1

; Function Attrs: noinline nounwind uwtable
define dso_local i32 @main() #0 {
  %1 = alloca i32, align 4
  %2 = alloca i32, align 4
  %3 = alloca i32, align 4
  %4 = alloca i32, align 4
  %5 = alloca i32, align 4
  %6 = alloca i32, align 4
  %7 = alloca [20 x i32], align 16
  %8 = alloca [20 x [101 x i8]], align 16
  %9 = alloca [50 x [101 x i8]], align 16
  store i32 0, i32* %1, align 4
  %10 = bitcast [50 x [101 x i8]]* %9 to i8*
  call void @llvm.memset.p0i8.i64(i8* align 16 %10, i8 0, i64 5050, i1 false)
  %11 = bitcast i8* %10 to <{ <{ i8, [100 x i8] }>, [49 x <{ i8, [100 x i8] }>] }>*
  %12 = getelementptr inbounds <{ <{ i8, [100 x i8] }>, [49 x <{ i8, [100 x i8] }>] }>, <{ <{ i8, [100 x i8] }>, [49 x <{ i8, [100 x i8] }>] }>* %11, i32 0, i32 0
  %13 = getelementptr inbounds <{ i8, [100 x i8] }>, <{ i8, [100 x i8] }>* %12, i32 0, i32 0
  store i8 32, i8* %13, align 16
  %14 = call i32 (i8*, ...) @__isoc99_scanf(i8* getelementptr inbounds ([3 x i8], [3 x i8]* @.str, i64 0, i64 0), i32* %2)
  store i32 1, i32* %3, align 4
  br label %15

15:                                               ; preds = %34, %0
  %16 = load i32, i32* %3, align 4
  %17 = load i32, i32* %2, align 4
  %18 = icmp sle i32 %16, %17
  br i1 %18, label %19, label %37

19:                                               ; preds = %15
  %20 = load i32, i32* %3, align 4
  %21 = sext i32 %20 to i64
  %22 = getelementptr inbounds [20 x [101 x i8]], [20 x [101 x i8]]* %8, i64 0, i64 %21
  %23 = getelementptr inbounds [101 x i8], [101 x i8]* %22, i64 0, i64 0
  %24 = call i32 (i8*, ...) @__isoc99_scanf(i8* getelementptr inbounds ([3 x i8], [3 x i8]* @.str.1, i64 0, i64 0), i8* %23)
  %25 = load i32, i32* %3, align 4
  %26 = sext i32 %25 to i64
  %27 = getelementptr inbounds [20 x [101 x i8]], [20 x [101 x i8]]* %8, i64 0, i64 %26
  %28 = getelementptr inbounds [101 x i8], [101 x i8]* %27, i64 0, i64 0
  %29 = call i64 @strlen(i8* %28) #4
  %30 = trunc i64 %29 to i32
  %31 = load i32, i32* %3, align 4
  %32 = sext i32 %31 to i64
  %33 = getelementptr inbounds [20 x i32], [20 x i32]* %7, i64 0, i64 %32
  store i32 %30, i32* %33, align 4
  br label %34

34:                                               ; preds = %19
  %35 = load i32, i32* %3, align 4
  %36 = add nsw i32 %35, 1
  store i32 %36, i32* %3, align 4
  br label %15

37:                                               ; preds = %15
  store i32 1, i32* %5, align 4
  br label %38

38:                                               ; preds = %224, %37
  %39 = load i32, i32* %5, align 4
  %40 = load i32, i32* %2, align 4
  %41 = icmp sle i32 %39, %40
  br i1 %41, label %42, label %227

42:                                               ; preds = %38
  store i32 0, i32* %3, align 4
  br label %43

43:                                               ; preds = %93, %42
  %44 = load i32, i32* %3, align 4
  %45 = load i32, i32* %5, align 4
  %46 = sext i32 %45 to i64
  %47 = getelementptr inbounds [20 x i32], [20 x i32]* %7, i64 0, i64 %46
  %48 = load i32, i32* %47, align 4
  %49 = icmp slt i32 %44, %48
  br i1 %49, label %50, label %96

50:                                               ; preds = %43
  %51 = load i32, i32* %5, align 4
  %52 = sext i32 %51 to i64
  %53 = getelementptr inbounds [20 x [101 x i8]], [20 x [101 x i8]]* %8, i64 0, i64 %52
  %54 = load i32, i32* %3, align 4
  %55 = sext i32 %54 to i64
  %56 = getelementptr inbounds [101 x i8], [101 x i8]* %53, i64 0, i64 %55
  %57 = load i8, i8* %56, align 1
  %58 = sext i8 %57 to i32
  %59 = icmp eq i32 %58, 40
  br i1 %59, label %60, label %67

60:                                               ; preds = %50
  %61 = load i32, i32* %5, align 4
  %62 = sext i32 %61 to i64
  %63 = getelementptr inbounds [50 x [101 x i8]], [50 x [101 x i8]]* %9, i64 0, i64 %62
  %64 = load i32, i32* %3, align 4
  %65 = sext i32 %64 to i64
  %66 = getelementptr inbounds [101 x i8], [101 x i8]* %63, i64 0, i64 %65
  store i8 36, i8* %66, align 1
  br label %92

67:                                               ; preds = %50
  %68 = load i32, i32* %5, align 4
  %69 = sext i32 %68 to i64
  %70 = getelementptr inbounds [20 x [101 x i8]], [20 x [101 x i8]]* %8, i64 0, i64 %69
  %71 = load i32, i32* %3, align 4
  %72 = sext i32 %71 to i64
  %73 = getelementptr inbounds [101 x i8], [101 x i8]* %70, i64 0, i64 %72
  %74 = load i8, i8* %73, align 1
  %75 = sext i8 %74 to i32
  %76 = icmp eq i32 %75, 41
  br i1 %76, label %77, label %84

77:                                               ; preds = %67
  %78 = load i32, i32* %5, align 4
  %79 = sext i32 %78 to i64
  %80 = getelementptr inbounds [50 x [101 x i8]], [50 x [101 x i8]]* %9, i64 0, i64 %79
  %81 = load i32, i32* %3, align 4
  %82 = sext i32 %81 to i64
  %83 = getelementptr inbounds [101 x i8], [101 x i8]* %80, i64 0, i64 %82
  store i8 63, i8* %83, align 1
  br label %91

84:                                               ; preds = %67
  %85 = load i32, i32* %5, align 4
  %86 = sext i32 %85 to i64
  %87 = getelementptr inbounds [50 x [101 x i8]], [50 x [101 x i8]]* %9, i64 0, i64 %86
  %88 = load i32, i32* %3, align 4
  %89 = sext i32 %88 to i64
  %90 = getelementptr inbounds [101 x i8], [101 x i8]* %87, i64 0, i64 %89
  store i8 32, i8* %90, align 1
  br label %91

91:                                               ; preds = %84, %77
  br label %92

92:                                               ; preds = %91, %60
  br label %93

93:                                               ; preds = %92
  %94 = load i32, i32* %3, align 4
  %95 = add nsw i32 %94, 1
  store i32 %95, i32* %3, align 4
  br label %43

96:                                               ; preds = %43
  store i32 0, i32* %3, align 4
  br label %97

97:                                               ; preds = %176, %96
  %98 = load i32, i32* %3, align 4
  %99 = load i32, i32* %5, align 4
  %100 = sext i32 %99 to i64
  %101 = getelementptr inbounds [20 x i32], [20 x i32]* %7, i64 0, i64 %100
  %102 = load i32, i32* %101, align 4
  %103 = sub nsw i32 %102, 1
  %104 = icmp slt i32 %98, %103
  br i1 %104, label %105, label %179

105:                                              ; preds = %97
  %106 = load i32, i32* %5, align 4
  %107 = sext i32 %106 to i64
  %108 = getelementptr inbounds [50 x [101 x i8]], [50 x [101 x i8]]* %9, i64 0, i64 %107
  %109 = load i32, i32* %3, align 4
  %110 = sext i32 %109 to i64
  %111 = getelementptr inbounds [101 x i8], [101 x i8]* %108, i64 0, i64 %110
  %112 = load i8, i8* %111, align 1
  %113 = sext i8 %112 to i32
  %114 = icmp eq i32 %113, 36
  br i1 %114, label %115, label %175

115:                                              ; preds = %105
  %116 = load i32, i32* %3, align 4
  %117 = add nsw i32 %116, 1
  store i32 %117, i32* %4, align 4
  br label %118

118:                                              ; preds = %171, %115
  %119 = load i32, i32* %4, align 4
  %120 = load i32, i32* %5, align 4
  %121 = sext i32 %120 to i64
  %122 = getelementptr inbounds [20 x i32], [20 x i32]* %7, i64 0, i64 %121
  %123 = load i32, i32* %122, align 4
  %124 = icmp slt i32 %119, %123
  br i1 %124, label %125, label %174

125:                                              ; preds = %118
  %126 = load i32, i32* %5, align 4
  %127 = sext i32 %126 to i64
  %128 = getelementptr inbounds [50 x [101 x i8]], [50 x [101 x i8]]* %9, i64 0, i64 %127
  %129 = load i32, i32* %4, align 4
  %130 = sext i32 %129 to i64
  %131 = getelementptr inbounds [101 x i8], [101 x i8]* %128, i64 0, i64 %130
  %132 = load i8, i8* %131, align 1
  %133 = sext i8 %132 to i32
  %134 = icmp eq i32 %133, 63
  br i1 %134, label %135, label %170

135:                                              ; preds = %125
  %136 = load i32, i32* %4, align 4
  %137 = sub nsw i32 %136, 1
  store i32 %137, i32* %6, align 4
  br label %138

138:                                              ; preds = %166, %135
  %139 = load i32, i32* %6, align 4
  %140 = load i32, i32* %3, align 4
  %141 = icmp sge i32 %139, %140
  br i1 %141, label %142, label %169

142:                                              ; preds = %138
  %143 = load i32, i32* %5, align 4
  %144 = sext i32 %143 to i64
  %145 = getelementptr inbounds [50 x [101 x i8]], [50 x [101 x i8]]* %9, i64 0, i64 %144
  %146 = load i32, i32* %6, align 4
  %147 = sext i32 %146 to i64
  %148 = getelementptr inbounds [101 x i8], [101 x i8]* %145, i64 0, i64 %147
  %149 = load i8, i8* %148, align 1
  %150 = sext i8 %149 to i32
  %151 = icmp eq i32 %150, 36
  br i1 %151, label %152, label %165

152:                                              ; preds = %142
  %153 = load i32, i32* %5, align 4
  %154 = sext i32 %153 to i64
  %155 = getelementptr inbounds [50 x [101 x i8]], [50 x [101 x i8]]* %9, i64 0, i64 %154
  %156 = load i32, i32* %6, align 4
  %157 = sext i32 %156 to i64
  %158 = getelementptr inbounds [101 x i8], [101 x i8]* %155, i64 0, i64 %157
  store i8 32, i8* %158, align 1
  %159 = load i32, i32* %5, align 4
  %160 = sext i32 %159 to i64
  %161 = getelementptr inbounds [50 x [101 x i8]], [50 x [101 x i8]]* %9, i64 0, i64 %160
  %162 = load i32, i32* %4, align 4
  %163 = sext i32 %162 to i64
  %164 = getelementptr inbounds [101 x i8], [101 x i8]* %161, i64 0, i64 %163
  store i8 32, i8* %164, align 1
  br label %169

165:                                              ; preds = %142
  br label %166

166:                                              ; preds = %165
  %167 = load i32, i32* %6, align 4
  %168 = add nsw i32 %167, -1
  store i32 %168, i32* %6, align 4
  br label %138

169:                                              ; preds = %152, %138
  br label %170

170:                                              ; preds = %169, %125
  br label %171

171:                                              ; preds = %170
  %172 = load i32, i32* %4, align 4
  %173 = add nsw i32 %172, 1
  store i32 %173, i32* %4, align 4
  br label %118

174:                                              ; preds = %118
  br label %175

175:                                              ; preds = %174, %105
  br label %176

176:                                              ; preds = %175
  %177 = load i32, i32* %3, align 4
  %178 = add nsw i32 %177, 1
  store i32 %178, i32* %3, align 4
  br label %97

179:                                              ; preds = %97
  store i32 0, i32* %3, align 4
  br label %180

180:                                              ; preds = %197, %179
  %181 = load i32, i32* %3, align 4
  %182 = load i32, i32* %5, align 4
  %183 = sext i32 %182 to i64
  %184 = getelementptr inbounds [20 x i32], [20 x i32]* %7, i64 0, i64 %183
  %185 = load i32, i32* %184, align 4
  %186 = icmp slt i32 %181, %185
  br i1 %186, label %187, label %200

187:                                              ; preds = %180
  %188 = load i32, i32* %5, align 4
  %189 = sext i32 %188 to i64
  %190 = getelementptr inbounds [20 x [101 x i8]], [20 x [101 x i8]]* %8, i64 0, i64 %189
  %191 = load i32, i32* %3, align 4
  %192 = sext i32 %191 to i64
  %193 = getelementptr inbounds [101 x i8], [101 x i8]* %190, i64 0, i64 %192
  %194 = load i8, i8* %193, align 1
  %195 = sext i8 %194 to i32
  %196 = call i32 (i8*, ...) @printf(i8* getelementptr inbounds ([3 x i8], [3 x i8]* @.str.2, i64 0, i64 0), i32 %195)
  br label %197

197:                                              ; preds = %187
  %198 = load i32, i32* %3, align 4
  %199 = add nsw i32 %198, 1
  store i32 %199, i32* %3, align 4
  br label %180

200:                                              ; preds = %180
  %201 = call i32 (i8*, ...) @printf(i8* getelementptr inbounds ([2 x i8], [2 x i8]* @.str.3, i64 0, i64 0))
  store i32 0, i32* %3, align 4
  br label %202

202:                                              ; preds = %219, %200
  %203 = load i32, i32* %3, align 4
  %204 = load i32, i32* %5, align 4
  %205 = sext i32 %204 to i64
  %206 = getelementptr inbounds [20 x i32], [20 x i32]* %7, i64 0, i64 %205
  %207 = load i32, i32* %206, align 4
  %208 = icmp slt i32 %203, %207
  br i1 %208, label %209, label %222

209:                                              ; preds = %202
  %210 = load i32, i32* %5, align 4
  %211 = sext i32 %210 to i64
  %212 = getelementptr inbounds [50 x [101 x i8]], [50 x [101 x i8]]* %9, i64 0, i64 %211
  %213 = load i32, i32* %3, align 4
  %214 = sext i32 %213 to i64
  %215 = getelementptr inbounds [101 x i8], [101 x i8]* %212, i64 0, i64 %214
  %216 = load i8, i8* %215, align 1
  %217 = sext i8 %216 to i32
  %218 = call i32 (i8*, ...) @printf(i8* getelementptr inbounds ([3 x i8], [3 x i8]* @.str.2, i64 0, i64 0), i32 %217)
  br label %219

219:                                              ; preds = %209
  %220 = load i32, i32* %3, align 4
  %221 = add nsw i32 %220, 1
  store i32 %221, i32* %3, align 4
  br label %202

222:                                              ; preds = %202
  %223 = call i32 (i8*, ...) @printf(i8* getelementptr inbounds ([2 x i8], [2 x i8]* @.str.3, i64 0, i64 0))
  br label %224

224:                                              ; preds = %222
  %225 = load i32, i32* %5, align 4
  %226 = add nsw i32 %225, 1
  store i32 %226, i32* %5, align 4
  br label %38

227:                                              ; preds = %38
  %228 = load i32, i32* %1, align 4
  ret i32 %228
}